target datalayout = "e-m:e-p270:32:32-p271:32:32-p272:64:64-i64:64-i128:128-f80:128-n8:16:32:64-S128"
target triple = "x86_64-pc-linux-gnu"

%struct.Nwk_Obj_t_ = type { ptr, ptr, ptr, %union.anon, i32, i32, i32, i32, float, float, float, i32, i32, i32, ptr }
%union.anon = type { ptr }

; Function Attrs: inlinehint nounwind uwtable
define internal ptr @Nwk_ObjFanin(ptr noundef %0, i32 noundef %1) #2 {
  %3 = alloca ptr, align 8
  %4 = alloca i32, align 4
  store ptr %0, ptr %3, align 8, !tbaa !18
  store i32 %1, ptr %4, align 4, !tbaa !8
  %5 = load ptr, ptr %3, align 8, !tbaa !18
  %6 = getelementptr inbounds nuw %struct.Nwk_Obj_t_, ptr %5, i32 0, i32 14
  %7 = load ptr, ptr %6, align 8, !tbaa !39
  %8 = load i32, ptr %4, align 4, !tbaa !8
  %9 = sext i32 %8 to i64
  %10 = getelementptr inbounds ptr, ptr %7, i64 %9
  %11 = load ptr, ptr %10, align 8, !tbaa !18
  ret ptr %11
}

; Function Attrs: inlinehint nounwind uwtable
define internal i32 @Nwk_ObjFaninNum(ptr noundef %0) #2 {
  %2 = alloca ptr, align 8
  store ptr %0, ptr %2, align 8, !tbaa !18
  %3 = load ptr, ptr %2, align 8, !tbaa !18
  %4 = getelementptr inbounds nuw %struct.Nwk_Obj_t_, ptr %3, i32 0, i32 11
  %5 = load i32, ptr %4, align 4, !tbaa !38
  ret i32 %5
}

; Function Attrs: nounwind uwtable
define i32 @Nwk_ManWhereIsPin(ptr noundef %0, ptr noundef %1, ptr noundef %2) #0 {
  %4 = alloca i32, align 4
  %5 = alloca ptr, align 8
  %6 = alloca ptr, align 8
  %7 = alloca ptr, align 8
  %8 = alloca i32, align 4
  %9 = alloca i32, align 4
  store ptr %0, ptr %5, align 8, !tbaa !18
  store ptr %1, ptr %6, align 8, !tbaa !18
  store ptr %2, ptr %7, align 8, !tbaa !34
  call void @llvm.lifetime.start.p0(i64 4, ptr %8) #8
  store i32 0, ptr %8, align 4, !tbaa !8
  br label %10

10:                                               ; preds = %28, %3
  %11 = load i32, ptr %8, align 4, !tbaa !8
  %12 = load ptr, ptr %5, align 8, !tbaa !18
  %13 = call i32 @Nwk_ObjFaninNum(ptr noundef %12)
  %14 = icmp slt i32 %11, %13
  br i1 %14, label %15, label %31

15:                                               ; preds = %10
  %16 = load ptr, ptr %5, align 8, !tbaa !18
  %17 = load ptr, ptr %7, align 8, !tbaa !34
  %18 = load i32, ptr %8, align 4, !tbaa !8
  %19 = sext i32 %18 to i64
  %20 = getelementptr inbounds i32, ptr %17, i64 %19
  %21 = load i32, ptr %20, align 4, !tbaa !8
  %22 = call ptr @Nwk_ObjFanin(ptr noundef %16, i32 noundef %21)
  %23 = load ptr, ptr %6, align 8, !tbaa !18
  %24 = icmp eq ptr %22, %23
  br i1 %24, label %25, label %27

25:                                               ; preds = %15
  %26 = load i32, ptr %8, align 4, !tbaa !8
  store i32 %26, ptr %4, align 4
  store i32 1, ptr %9, align 4
  br label %32

27:                                               ; preds = %15
  br label %28

28:                                               ; preds = %27
  %29 = load i32, ptr %8, align 4, !tbaa !8
  %30 = add nsw i32 %29, 1
  store i32 %30, ptr %8, align 4, !tbaa !8
  br label %10, !llvm.loop !45

31:                                               ; preds = %10
  store i32 -1, ptr %4, align 4
  store i32 1, ptr %9, align 4
  br label %32

32:                                               ; preds = %31, %25
  call void @llvm.lifetime.end.p0(i64 4, ptr %8) #8
  %33 = load i32, ptr %4, align 4
  ret i32 %33
}