; Function Attrs: nofree norecurse nosync nounwind memory(read, inaccessiblemem: none) uwtable
define range(i32 -2147483648, 2147483647) i32 @Nwk_ManWhereIsPin(ptr noundef readonly captures(none) %0, ptr noundef readnone %1, ptr noundef readonly captures(none) %2) local_unnamed_addr #3 {
  %4 = getelementptr i8, ptr %0, i64 60
  %.val = load i32, ptr %4, align 4, !tbaa !29
  %5 = icmp sgt i32 %.val, 0
  br i1 %5, label %.lr.ph, label %._crit_edge

.lr.ph:                                           ; preds = %3
  %6 = getelementptr i8, ptr %0, i64 72
  %.val9 = load ptr, ptr %6, align 8, !tbaa !30
  %wide.trip.count = zext nneg i32 %.val to i64
  br label %7

7:                                                ; preds = %.lr.ph, %14
  %indvars.iv = phi i64 [ 0, %.lr.ph ], [ %indvars.iv.next, %14 ]
  %8 = getelementptr inbounds nuw i32, ptr %2, i64 %indvars.iv
  %9 = load i32, ptr %8, align 4, !tbaa !34
  %10 = sext i32 %9 to i64
  %11 = getelementptr inbounds ptr, ptr %.val9, i64 %10
  %12 = load ptr, ptr %11, align 8, !tbaa !31
  %13 = icmp eq ptr %12, %1
  br i1 %13, label %._crit_edge.loopexit.split.loop.exit14, label %14

14:                                               ; preds = %7
  %indvars.iv.next = add nuw nsw i64 %indvars.iv, 1
  %exitcond.not = icmp eq i64 %indvars.iv.next, %wide.trip.count
  br i1 %exitcond.not, label %._crit_edge, label %7, !llvm.loop !38

._crit_edge.loopexit.split.loop.exit14:           ; preds = %7
  %15 = trunc nuw nsw i64 %indvars.iv to i32
  br label %._crit_edge

._crit_edge:                                      ; preds = %14, %._crit_edge.loopexit.split.loop.exit14, %3
  %.08 = phi i32 [ -1, %3 ], [ %15, %._crit_edge.loopexit.split.loop.exit14 ], [ -1, %14 ]
  ret i32 %.08
}